; Function Attrs: mustprogress nofree norecurse nosync nounwind willreturn memory(read, inaccessiblemem: none) uwtable
define hidden noundef zeroext i1 @_ZNK3euf6etable5cg_eqclEPNS_5enodeES3_(ptr nocapture noundef nonnull readnone align 1 dereferenceable(1) %this, ptr nocapture noundef readonly %n1, ptr nocapture noundef readonly %n2) local_unnamed_addr #3 align 2 {
entry:
  %m_num_args.i = getelementptr inbounds i8, ptr %n1, i64 152
  %0 = load i32, ptr %m_num_args.i, align 8
  %m_num_args.i7 = getelementptr inbounds i8, ptr %n2, i64 152
  %1 = load i32, ptr %m_num_args.i7, align 8
  %cmp.not = icmp eq i32 %0, %1
  br i1 %cmp.not, label %for.cond.preheader, label %return

for.cond.preheader:                               ; preds = %entry
  %m_args.i.i = getelementptr inbounds i8, ptr %n1, i64 176
  %cmp312.not = icmp eq i32 %0, 0
  br i1 %cmp312.not, label %return, label %for.body.lr.ph

for.body.lr.ph:                                   ; preds = %for.cond.preheader
  %m_args.i.i8 = getelementptr inbounds i8, ptr %n2, i64 176
  %wide.trip.count = zext i32 %0 to i64
  br label %for.body

for.body:                                         ; preds = %for.body, %for.body.lr.ph
  %indvars.iv = phi i64 [ 0, %for.body.lr.ph ], [ %indvars.iv.next, %for.body ]
  %arrayidx.i.i = getelementptr inbounds [0 x ptr], ptr %m_args.i.i, i64 0, i64 %indvars.iv
  %2 = load ptr, ptr %arrayidx.i.i, align 8
  %m_root.i.i = getelementptr inbounds i8, ptr %2, i64 64
  %3 = load ptr, ptr %m_root.i.i, align 8
  %arrayidx.i.i10 = getelementptr inbounds [0 x ptr], ptr %m_args.i.i8, i64 0, i64 %indvars.iv
  %4 = load ptr, ptr %arrayidx.i.i10, align 8
  %m_root.i.i11 = getelementptr inbounds i8, ptr %4, i64 64
  %5 = load ptr, ptr %m_root.i.i11, align 8
  %cmp6.not = icmp eq ptr %3, %5
  %indvars.iv.next = add nuw nsw i64 %indvars.iv, 1
  %exitcond.not = icmp ne i64 %indvars.iv.next, %wide.trip.count
  %or.cond.not = select i1 %cmp6.not, i1 %exitcond.not, i1 false
  br i1 %or.cond.not, label %for.body, label %return, !llvm.loop !6

return:                                           ; preds = %for.body, %for.cond.preheader, %entry
  %retval.0 = phi i1 [ false, %entry ], [ true, %for.cond.preheader ], [ %cmp6.not, %for.body ]
  ret i1 %retval.0
}